; Function Attrs: mustprogress uwtable
define dso_local void @_ZN4base9ListValue12AppendDoubleEd(ptr nocapture noundef nonnull align 8 dereferenceable(40) %this, double noundef %in_value) local_unnamed_addr #3 align 2 personality ptr @__gxx_personality_v0 {
invoke.cont:
  %call = tail call noalias noundef nonnull dereferenceable(24) ptr @_Znwm(i64 noundef 24) #25
  %type_.i.i = getelementptr inbounds i8, ptr %call, i64 8
  store i32 3, ptr %type_.i.i, align 8
  store ptr getelementptr inbounds ({ [17 x ptr] }, ptr @_ZTVN4base16FundamentalValueE, i64 0, i32 0, i64 2), ptr %call, align 8
  %0 = tail call double @llvm.fabs.f64(double %in_value)
  %1 = fcmp ueq double %0, 0x7FF0000000000000
  %storemerge.i = select i1 %1, double 0.000000e+00, double %in_value
  %2 = getelementptr inbounds i8, ptr %call, i64 16
  store double %storemerge.i, ptr %2, align 8
  tail call void @_ZN4base9ListValue6AppendEPNS_5ValueE(ptr noundef nonnull align 8 dereferenceable(40) %this, ptr noundef nonnull %call)
  ret void
}